; ModuleID = 'source-C-CXX/18/1085.c'
source_filename = "source-C-CXX/18/1085.c"
target datalayout = "e-m:e-p270:32:32-p271:32:32-p272:64:64-i64:64-f80:128-n8:16:32:64-S128"
target triple = "x86_64-pc-linux-gnu"

@.str = private unnamed_addr constant [4 x i8] c"%s \00", align 1
@.str.1 = private unnamed_addr constant [3 x i8] c"%s\00", align 1

; Function Attrs: nounwind sspstrong uwtable
define dso_local i32 @main() local_unnamed_addr #0 {
  %1 = alloca [100 x i8], align 16
  %2 = alloca [100 x i8], align 16
  %3 = alloca [100 x i8], align 16
  %4 = alloca [50 x [20 x i8]], align 16
  %5 = getelementptr inbounds [100 x i8], [100 x i8]* %1, i64 0, i64 0
  call void @llvm.lifetime.start.p0i8(i64 100, i8* nonnull %5) #6
  %6 = getelementptr inbounds [100 x i8], [100 x i8]* %2, i64 0, i64 0
  call void @llvm.lifetime.start.p0i8(i64 100, i8* nonnull %6) #6
  %7 = getelementptr inbounds [100 x i8], [100 x i8]* %3, i64 0, i64 0
  call void @llvm.lifetime.start.p0i8(i64 100, i8* nonnull %7) #6
  %8 = getelementptr inbounds [50 x [20 x i8]], [50 x [20 x i8]]* %4, i64 0, i64 0, i64 0
  call void @llvm.lifetime.start.p0i8(i64 1000, i8* nonnull %8) #6
  call void @llvm.memset.p0i8.i64(i8* noundef nonnull align 16 dereferenceable(1000) %8, i8 0, i64 1000, i1 false)
  %9 = call i32 (i8*, ...) bitcast (i32 (...)* @gets to i32 (i8*, ...)*)(i8* nonnull %5) #6
  %10 = call i32 (i8*, ...) bitcast (i32 (...)* @gets to i32 (i8*, ...)*)(i8* nonnull %6) #6
  %11 = call i32 (i8*, ...) bitcast (i32 (...)* @gets to i32 (i8*, ...)*)(i8* nonnull %7) #6
  %12 = call i64 @strlen(i8* noundef nonnull %5) #7
  %13 = trunc i64 %12 to i32
  %14 = icmp sgt i32 %13, 0
  br i1 %14, label %15, label %21

15:                                               ; preds = %0
  %16 = shl i64 %12, 32
  %17 = ashr exact i64 %16, 32
  br label %26

18:                                               ; preds = %50
  %19 = trunc i64 %29 to i32
  %20 = icmp ugt i32 %19, 1
  br i1 %20, label %24, label %21

21:                                               ; preds = %0, %18
  %22 = phi i64 [ %29, %18 ], [ 0, %0 ]
  %23 = and i64 %22, 4294967295
  br label %63

24:                                               ; preds = %18
  %25 = and i64 %29, 4294967295
  br label %54

26:                                               ; preds = %15, %50
  %27 = phi i64 [ 0, %15 ], [ %29, %50 ]
  %28 = phi i32 [ 0, %15 ], [ %52, %50 ]
  %29 = add nuw i64 %27, 1
  %30 = sext i32 %28 to i64
  %31 = getelementptr inbounds [100 x i8], [100 x i8]* %1, i64 0, i64 %30
  %32 = load i8, i8* %31, align 1, !tbaa !5
  %33 = icmp ne i8 %32, 32
  %34 = icmp slt i32 %28, %13
  %35 = select i1 %33, i1 %34, i1 false
  br i1 %35, label %36, label %50

36:                                               ; preds = %26, %36
  %37 = phi i64 [ %41, %36 ], [ 0, %26 ]
  %38 = phi i64 [ %42, %36 ], [ %30, %26 ]
  %39 = phi i8 [ %44, %36 ], [ %32, %26 ]
  %40 = getelementptr inbounds [50 x [20 x i8]], [50 x [20 x i8]]* %4, i64 0, i64 %29, i64 %37
  store i8 %39, i8* %40, align 1, !tbaa !5
  %41 = add nuw nsw i64 %37, 1
  %42 = add nsw i64 %38, 1
  %43 = getelementptr inbounds [100 x i8], [100 x i8]* %1, i64 0, i64 %42
  %44 = load i8, i8* %43, align 1, !tbaa !5
  %45 = icmp ne i8 %44, 32
  %46 = icmp slt i64 %42, %17
  %47 = select i1 %45, i1 %46, i1 false
  br i1 %47, label %36, label %48, !llvm.loop !8

48:                                               ; preds = %36
  %49 = trunc i64 %42 to i32
  br label %50

50:                                               ; preds = %48, %26
  %51 = phi i32 [ %28, %26 ], [ %49, %48 ]
  %52 = add nsw i32 %51, 1
  %53 = icmp slt i32 %52, %13
  br i1 %53, label %26, label %18, !llvm.loop !10

54:                                               ; preds = %24, %54
  %55 = phi i64 [ 1, %24 ], [ %61, %54 ]
  %56 = getelementptr inbounds [50 x [20 x i8]], [50 x [20 x i8]]* %4, i64 0, i64 %55, i64 0
  %57 = call i32 @strcmp(i8* noundef nonnull %56, i8* noundef nonnull %6) #7
  %58 = icmp eq i32 %57, 0
  %59 = select i1 %58, i8* %7, i8* %56
  %60 = call i32 (i8*, ...) @printf(i8* nonnull dereferenceable(1) getelementptr inbounds ([4 x i8], [4 x i8]* @.str, i64 0, i64 0), i8* nonnull %59)
  %61 = add nuw nsw i64 %55, 1
  %62 = icmp eq i64 %61, %25
  br i1 %62, label %63, label %54, !llvm.loop !11

63:                                               ; preds = %54, %21
  %64 = phi i64 [ %23, %21 ], [ %25, %54 ]
  %65 = getelementptr inbounds [50 x [20 x i8]], [50 x [20 x i8]]* %4, i64 0, i64 %64, i64 0
  %66 = call i32 @strcmp(i8* noundef nonnull %65, i8* noundef nonnull %6) #7
  %67 = icmp eq i32 %66, 0
  %68 = select i1 %67, i8* %7, i8* %65
  %69 = call i32 (i8*, ...) @printf(i8* nonnull dereferenceable(1) getelementptr inbounds ([3 x i8], [3 x i8]* @.str.1, i64 0, i64 0), i8* nonnull %68)
  call void @llvm.lifetime.end.p0i8(i64 1000, i8* nonnull %8) #6
  call void @llvm.lifetime.end.p0i8(i64 100, i8* nonnull %7) #6
  call void @llvm.lifetime.end.p0i8(i64 100, i8* nonnull %6) #6
  call void @llvm.lifetime.end.p0i8(i64 100, i8* nonnull %5) #6
  ret i32 0
}

; Function Attrs: argmemonly mustprogress nofree nosync nounwind willreturn
declare void @llvm.lifetime.start.p0i8(i64 immarg, i8* nocapture) #1

; Function Attrs: argmemonly mustprogress nofree nounwind willreturn writeonly
declare void @llvm.memset.p0i8.i64(i8* nocapture writeonly, i8, i64, i1 immarg) #2

declare i32 @gets(...) local_unnamed_addr #3

; Function Attrs: argmemonly mustprogress nofree nounwind readonly willreturn
declare i64 @strlen(i8* nocapture) local_unnamed_addr #4

; Function Attrs: argmemonly mustprogress nofree nounwind readonly willreturn
declare i32 @strcmp(i8* nocapture, i8* nocapture) local_unnamed_addr #4

; Function Attrs: nofree nounwind
declare noundef i32 @printf(i8* nocapture noundef readonly, ...) local_unnamed_addr #5

; Function Attrs: argmemonly mustprogress nofree nosync nounwind willreturn
declare void @llvm.lifetime.end.p0i8(i64 immarg, i8* nocapture) #1


!llvm.module.flags = !{!0, !1, !2, !3}
!llvm.ident = !{!4}

!0 = !{i32 1, !"wchar_size", i32 4}
!1 = !{i32 7, !"PIC Level", i32 2}
!2 = !{i32 7, !"PIE Level", i32 2}
!3 = !{i32 7, !"uwtable", i32 1}
!4 = !{!"clang version 13.0.0"}
!5 = !{!6, !6, i64 0}
!6 = !{!"omnipotent char", !7, i64 0}
!7 = !{!"Simple C/C++ TBAA"}
!8 = distinct !{!8, !9}
!9 = !{!"llvm.loop.mustprogress"}
!10 = distinct !{!10, !9}
!11 = distinct !{!11, !9}
